; Function Attrs: mustprogress uwtable
define hidden noundef double @_ZN2cv7get_minERKNS_3MatE(ptr noundef nonnull align 8 dereferenceable(96) %0) local_unnamed_addr #3 personality ptr @__gxx_personality_v0 {
  %2 = alloca double, align 8
  %3 = alloca %"class.cv::_InputArray", align 8
  call void @llvm.lifetime.start.p0(i64 8, ptr nonnull %2) #21
  call void @llvm.lifetime.start.p0(i64 24, ptr nonnull %3) #21
  %4 = getelementptr inbounds nuw i8, ptr %3, i64 16
  store i32 0, ptr %4, align 8, !tbaa !45
  %5 = getelementptr inbounds nuw i8, ptr %3, i64 20
  store i32 0, ptr %5, align 4, !tbaa !47
  store i32 16842752, ptr %3, align 8, !tbaa !48
  %6 = getelementptr inbounds nuw i8, ptr %3, i64 8
  store ptr %0, ptr %6, align 8, !tbaa !50
  %7 = tail call noundef nonnull align 8 dereferenceable(24) ptr @_ZN2cv7noArrayEv()
  call void @_ZN2cv9minMaxLocERKNS_11_InputArrayEPdS3_PNS_6Point_IiEES6_S2_(ptr noundef nonnull align 8 dereferenceable(24) %3, ptr noundef nonnull %2, ptr noundef null, ptr noundef null, ptr noundef null, ptr noundef nonnull align 8 dereferenceable(24) %7)
  call void @llvm.lifetime.end.p0(i64 24, ptr nonnull %3) #21
  %8 = load double, ptr %2, align 8, !tbaa !142
  call void @llvm.lifetime.end.p0(i64 8, ptr nonnull %2) #21
  ret double %8
}